; Function Attrs: mustprogress uwtable
define dso_local void @_Z9arg_checkii(i32 noundef %0, i32 noundef %1) local_unnamed_addr #3 {
  %.not = icmp slt i32 %1, %0
  br i1 %.not, label %7, label %3

3:                                                ; preds = %2
  %4 = tail call noundef nonnull align 8 dereferenceable(8) ptr @_ZStlsISt11char_traitsIcEERSt13basic_ostreamIcT_ES5_PKc(ptr noundef nonnull align 8 dereferenceable(8) @_ZSt4cout, ptr noundef nonnull @.str.1)
  %5 = tail call noundef nonnull align 8 dereferenceable(8) ptr @_ZNSolsEi(ptr noundef nonnull align 8 dereferenceable(8) %4, i32 noundef %1)
  %6 = tail call noundef nonnull align 8 dereferenceable(8) ptr @_ZSt4endlIcSt11char_traitsIcEERSt13basic_ostreamIT_T0_ES6_(ptr noundef nonnull align 8 dereferenceable(8) %5)
  tail call void @exit(i32 noundef -1) #15
  unreachable

7:                                                ; preds = %2
  ret void
}